target datalayout = "e-m:e-p270:32:32-p271:32:32-p272:64:64-i64:64-i128:128-f80:128-n8:16:32:64-S128"
target triple = "x86_64-pc-linux-gnu"

%struct._Node = type { %union.anon.2 }
%union.anon.2 = type { %struct.BagNode }
%struct.BagNode = type { i32, i32, ptr, ptr, i32, %union.anon.4, i32, i32, i32, i32, i32 }
%union.anon.4 = type { %struct.anon.7 }
%struct.anon.7 = type { ptr, ptr }
%struct.StrNode = type { i32, i32, ptr, ptr, ptr, i32, [24 x i8], i32 }

; Function Attrs: nounwind uwtable
define dso_local void @onig_node_str_clear(ptr noundef %0, i32 noundef %1) #0 {
  %3 = alloca ptr, align 8
  %4 = alloca i32, align 4
  store ptr %0, ptr %3, align 8, !tbaa !111
  store i32 %1, ptr %4, align 4, !tbaa !10
  %5 = load i32, ptr %4, align 4, !tbaa !10
  %6 = icmp ne i32 %5, 0
  br i1 %6, label %7, label %34

7:                                                ; preds = %2
  %8 = load ptr, ptr %3, align 8, !tbaa !111
  %9 = getelementptr inbounds nuw %struct._Node, ptr %8, i32 0, i32 0
  %10 = getelementptr inbounds nuw %struct.StrNode, ptr %9, i32 0, i32 7
  %11 = load i32, ptr %10, align 4, !tbaa !12
  %12 = icmp ne i32 %11, 0
  br i1 %12, label %13, label %34

13:                                               ; preds = %7
  %14 = load ptr, ptr %3, align 8, !tbaa !111
  %15 = getelementptr inbounds nuw %struct._Node, ptr %14, i32 0, i32 0
  %16 = getelementptr inbounds nuw %struct.StrNode, ptr %15, i32 0, i32 3
  %17 = load ptr, ptr %16, align 8, !tbaa !12
  %18 = icmp ne ptr %17, null
  br i1 %18, label %19, label %34

19:                                               ; preds = %13
  %20 = load ptr, ptr %3, align 8, !tbaa !111
  %21 = getelementptr inbounds nuw %struct._Node, ptr %20, i32 0, i32 0
  %22 = getelementptr inbounds nuw %struct.StrNode, ptr %21, i32 0, i32 3
  %23 = load ptr, ptr %22, align 8, !tbaa !12
  %24 = load ptr, ptr %3, align 8, !tbaa !111
  %25 = getelementptr inbounds nuw %struct._Node, ptr %24, i32 0, i32 0
  %26 = getelementptr inbounds nuw %struct.StrNode, ptr %25, i32 0, i32 6
  %27 = getelementptr inbounds [24 x i8], ptr %26, i64 0, i64 0
  %28 = icmp ne ptr %23, %27
  br i1 %28, label %29, label %34

29:                                               ; preds = %19
  %30 = load ptr, ptr %3, align 8, !tbaa !111
  %31 = getelementptr inbounds nuw %struct._Node, ptr %30, i32 0, i32 0
  %32 = getelementptr inbounds nuw %struct.StrNode, ptr %31, i32 0, i32 3
  %33 = load ptr, ptr %32, align 8, !tbaa !12
  call void @free(ptr noundef %33) #8
  br label %34

34:                                               ; preds = %29, %19, %13, %7, %2
  %35 = load ptr, ptr %3, align 8, !tbaa !111
  %36 = getelementptr inbounds nuw %struct._Node, ptr %35, i32 0, i32 0
  %37 = getelementptr inbounds nuw %struct.StrNode, ptr %36, i32 0, i32 5
  store i32 0, ptr %37, align 8, !tbaa !12
  %38 = load ptr, ptr %3, align 8, !tbaa !111
  %39 = getelementptr inbounds nuw %struct._Node, ptr %38, i32 0, i32 0
  %40 = getelementptr inbounds nuw %struct.StrNode, ptr %39, i32 0, i32 6
  %41 = getelementptr inbounds [24 x i8], ptr %40, i64 0, i64 0
  %42 = load ptr, ptr %3, align 8, !tbaa !111
  %43 = getelementptr inbounds nuw %struct._Node, ptr %42, i32 0, i32 0
  %44 = getelementptr inbounds nuw %struct.StrNode, ptr %43, i32 0, i32 3
  store ptr %41, ptr %44, align 8, !tbaa !12
  %45 = load ptr, ptr %3, align 8, !tbaa !111
  %46 = getelementptr inbounds nuw %struct._Node, ptr %45, i32 0, i32 0
  %47 = getelementptr inbounds nuw %struct.StrNode, ptr %46, i32 0, i32 6
  %48 = getelementptr inbounds [24 x i8], ptr %47, i64 0, i64 0
  %49 = load ptr, ptr %3, align 8, !tbaa !111
  %50 = getelementptr inbounds nuw %struct._Node, ptr %49, i32 0, i32 0
  %51 = getelementptr inbounds nuw %struct.StrNode, ptr %50, i32 0, i32 4
  store ptr %48, ptr %51, align 8, !tbaa !12
  %52 = load ptr, ptr %3, align 8, !tbaa !111
  %53 = getelementptr inbounds nuw %struct._Node, ptr %52, i32 0, i32 0
  %54 = getelementptr inbounds nuw %struct.StrNode, ptr %53, i32 0, i32 7
  store i32 0, ptr %54, align 4, !tbaa !12
  ret void
}